target datalayout = "e-m:e-p270:32:32-p271:32:32-p272:64:64-i64:64-i128:128-f80:128-n8:16:32:64-S128"
target triple = "x86_64-pc-linux-gnu"

%struct.lexbor_avl_node = type { i64, i16, ptr, ptr, ptr, ptr }

; Function Attrs: nounwind uwtable
define internal void @lexbor_avl_rotate_for_delete(ptr noundef %0, ptr noundef %1, ptr noundef %2) #0 {
  %4 = alloca ptr, align 8
  %5 = alloca ptr, align 8
  %6 = alloca ptr, align 8
  %7 = alloca ptr, align 8
  store ptr %0, ptr %4, align 8
  store ptr %1, ptr %5, align 8
  store ptr %2, ptr %6, align 8
  %8 = load ptr, ptr %5, align 8
  %9 = icmp ne ptr %8, null
  br i1 %9, label %10, label %123

10:                                               ; preds = %3
  %11 = load ptr, ptr %4, align 8
  %12 = getelementptr inbounds %struct.lexbor_avl_node, ptr %11, i32 0, i32 3
  %13 = load ptr, ptr %12, align 8
  %14 = load ptr, ptr %5, align 8
  %15 = icmp eq ptr %13, %14
  br i1 %15, label %16, label %50

16:                                               ; preds = %10
  %17 = load ptr, ptr %5, align 8
  %18 = getelementptr inbounds %struct.lexbor_avl_node, ptr %17, i32 0, i32 3
  %19 = load ptr, ptr %18, align 8
  %20 = icmp ne ptr %19, null
  br i1 %20, label %21, label %25

21:                                               ; preds = %16
  %22 = load ptr, ptr %5, align 8
  %23 = getelementptr inbounds %struct.lexbor_avl_node, ptr %22, i32 0, i32 3
  %24 = load ptr, ptr %23, align 8
  br label %27

25:                                               ; preds = %16
  %26 = load ptr, ptr %5, align 8
  br label %27

27:                                               ; preds = %25, %21
  %28 = phi ptr [ %24, %21 ], [ %26, %25 ]
  store ptr %28, ptr %7, align 8
  %29 = load ptr, ptr %4, align 8
  %30 = getelementptr inbounds %struct.lexbor_avl_node, ptr %29, i32 0, i32 5
  %31 = load ptr, ptr %30, align 8
  %32 = load ptr, ptr %5, align 8
  %33 = getelementptr inbounds %struct.lexbor_avl_node, ptr %32, i32 0, i32 5
  store ptr %31, ptr %33, align 8
  %34 = load ptr, ptr %4, align 8
  %35 = getelementptr inbounds %struct.lexbor_avl_node, ptr %34, i32 0, i32 4
  %36 = load ptr, ptr %35, align 8
  %37 = load ptr, ptr %5, align 8
  %38 = getelementptr inbounds %struct.lexbor_avl_node, ptr %37, i32 0, i32 4
  store ptr %36, ptr %38, align 8
  %39 = load ptr, ptr %4, align 8
  %40 = getelementptr inbounds %struct.lexbor_avl_node, ptr %39, i32 0, i32 4
  %41 = load ptr, ptr %40, align 8
  %42 = icmp ne ptr %41, null
  br i1 %42, label %43, label %49

43:                                               ; preds = %27
  %44 = load ptr, ptr %5, align 8
  %45 = load ptr, ptr %4, align 8
  %46 = getelementptr inbounds %struct.lexbor_avl_node, ptr %45, i32 0, i32 4
  %47 = load ptr, ptr %46, align 8
  %48 = getelementptr inbounds %struct.lexbor_avl_node, ptr %47, i32 0, i32 5
  store ptr %44, ptr %48, align 8
  br label %49

49:                                               ; preds = %43, %27
  br label %93

50:                                               ; preds = %10
  %51 = load ptr, ptr %5, align 8
  store ptr %51, ptr %7, align 8
  %52 = load ptr, ptr %5, align 8
  %53 = getelementptr inbounds %struct.lexbor_avl_node, ptr %52, i32 0, i32 5
  %54 = load ptr, ptr %53, align 8
  %55 = getelementptr inbounds %struct.lexbor_avl_node, ptr %54, i32 0, i32 4
  store ptr null, ptr %55, align 8
  %56 = load ptr, ptr %4, align 8
  %57 = getelementptr inbounds %struct.lexbor_avl_node, ptr %56, i32 0, i32 5
  %58 = load ptr, ptr %57, align 8
  %59 = load ptr, ptr %5, align 8
  %60 = getelementptr inbounds %struct.lexbor_avl_node, ptr %59, i32 0, i32 5
  store ptr %58, ptr %60, align 8
  %61 = load ptr, ptr %4, align 8
  %62 = getelementptr inbounds %struct.lexbor_avl_node, ptr %61, i32 0, i32 4
  %63 = load ptr, ptr %62, align 8
  %64 = load ptr, ptr %5, align 8
  %65 = getelementptr inbounds %struct.lexbor_avl_node, ptr %64, i32 0, i32 4
  store ptr %63, ptr %65, align 8
  %66 = load ptr, ptr %4, align 8
  %67 = getelementptr inbounds %struct.lexbor_avl_node, ptr %66, i32 0, i32 3
  %68 = load ptr, ptr %67, align 8
  %69 = load ptr, ptr %5, align 8
  %70 = getelementptr inbounds %struct.lexbor_avl_node, ptr %69, i32 0, i32 3
  store ptr %68, ptr %70, align 8
  %71 = load ptr, ptr %4, align 8
  %72 = getelementptr inbounds %struct.lexbor_avl_node, ptr %71, i32 0, i32 3
  %73 = load ptr, ptr %72, align 8
  %74 = icmp ne ptr %73, null
  br i1 %74, label %75, label %81

75:                                               ; preds = %50
  %76 = load ptr, ptr %5, align 8
  %77 = load ptr, ptr %4, align 8
  %78 = getelementptr inbounds %struct.lexbor_avl_node, ptr %77, i32 0, i32 3
  %79 = load ptr, ptr %78, align 8
  %80 = getelementptr inbounds %struct.lexbor_avl_node, ptr %79, i32 0, i32 5
  store ptr %76, ptr %80, align 8
  br label %81

81:                                               ; preds = %75, %50
  %82 = load ptr, ptr %4, align 8
  %83 = getelementptr inbounds %struct.lexbor_avl_node, ptr %82, i32 0, i32 4
  %84 = load ptr, ptr %83, align 8
  %85 = icmp ne ptr %84, null
  br i1 %85, label %86, label %92

86:                                               ; preds = %81
  %87 = load ptr, ptr %5, align 8
  %88 = load ptr, ptr %4, align 8
  %89 = getelementptr inbounds %struct.lexbor_avl_node, ptr %88, i32 0, i32 4
  %90 = load ptr, ptr %89, align 8
  %91 = getelementptr inbounds %struct.lexbor_avl_node, ptr %90, i32 0, i32 5
  store ptr %87, ptr %91, align 8
  br label %92

92:                                               ; preds = %86, %81
  br label %93

93:                                               ; preds = %92, %49
  %94 = load ptr, ptr %4, align 8
  %95 = getelementptr inbounds %struct.lexbor_avl_node, ptr %94, i32 0, i32 5
  %96 = load ptr, ptr %95, align 8
  %97 = icmp ne ptr %96, null
  br i1 %97, label %98, label %119

98:                                               ; preds = %93
  %99 = load ptr, ptr %4, align 8
  %100 = getelementptr inbounds %struct.lexbor_avl_node, ptr %99, i32 0, i32 5
  %101 = load ptr, ptr %100, align 8
  %102 = getelementptr inbounds %struct.lexbor_avl_node, ptr %101, i32 0, i32 3
  %103 = load ptr, ptr %102, align 8
  %104 = load ptr, ptr %4, align 8
  %105 = icmp eq ptr %103, %104
  br i1 %105, label %106, label %112

106:                                              ; preds = %98
  %107 = load ptr, ptr %5, align 8
  %108 = load ptr, ptr %4, align 8
  %109 = getelementptr inbounds %struct.lexbor_avl_node, ptr %108, i32 0, i32 5
  %110 = load ptr, ptr %109, align 8
  %111 = getelementptr inbounds %struct.lexbor_avl_node, ptr %110, i32 0, i32 3
  store ptr %107, ptr %111, align 8
  br label %118

112:                                              ; preds = %98
  %113 = load ptr, ptr %5, align 8
  %114 = load ptr, ptr %4, align 8
  %115 = getelementptr inbounds %struct.lexbor_avl_node, ptr %114, i32 0, i32 5
  %116 = load ptr, ptr %115, align 8
  %117 = getelementptr inbounds %struct.lexbor_avl_node, ptr %116, i32 0, i32 4
  store ptr %113, ptr %117, align 8
  br label %118

118:                                              ; preds = %112, %106
  br label %122

119:                                              ; preds = %93
  %120 = load ptr, ptr %5, align 8
  %121 = load ptr, ptr %6, align 8
  store ptr %120, ptr %121, align 8
  br label %122

122:                                              ; preds = %119, %118
  br label %165

123:                                              ; preds = %3
  %124 = load ptr, ptr %4, align 8
  %125 = getelementptr inbounds %struct.lexbor_avl_node, ptr %124, i32 0, i32 5
  %126 = load ptr, ptr %125, align 8
  store ptr %126, ptr %7, align 8
  %127 = load ptr, ptr %7, align 8
  %128 = icmp ne ptr %127, null
  br i1 %128, label %129, label %148

129:                                              ; preds = %123
  %130 = load ptr, ptr %7, align 8
  %131 = getelementptr inbounds %struct.lexbor_avl_node, ptr %130, i32 0, i32 3
  %132 = load ptr, ptr %131, align 8
  %133 = load ptr, ptr %4, align 8
  %134 = icmp eq ptr %132, %133
  br i1 %134, label %135, label %141

135:                                              ; preds = %129
  %136 = load ptr, ptr %4, align 8
  %137 = getelementptr inbounds %struct.lexbor_avl_node, ptr %136, i32 0, i32 4
  %138 = load ptr, ptr %137, align 8
  %139 = load ptr, ptr %7, align 8
  %140 = getelementptr inbounds %struct.lexbor_avl_node, ptr %139, i32 0, i32 3
  store ptr %138, ptr %140, align 8
  br label %147

141:                                              ; preds = %129
  %142 = load ptr, ptr %4, align 8
  %143 = getelementptr inbounds %struct.lexbor_avl_node, ptr %142, i32 0, i32 4
  %144 = load ptr, ptr %143, align 8
  %145 = load ptr, ptr %7, align 8
  %146 = getelementptr inbounds %struct.lexbor_avl_node, ptr %145, i32 0, i32 4
  store ptr %144, ptr %146, align 8
  br label %147

147:                                              ; preds = %141, %135
  br label %153

148:                                              ; preds = %123
  %149 = load ptr, ptr %4, align 8
  %150 = getelementptr inbounds %struct.lexbor_avl_node, ptr %149, i32 0, i32 4
  %151 = load ptr, ptr %150, align 8
  %152 = load ptr, ptr %6, align 8
  store ptr %151, ptr %152, align 8
  br label %153

153:                                              ; preds = %148, %147
  %154 = load ptr, ptr %4, align 8
  %155 = getelementptr inbounds %struct.lexbor_avl_node, ptr %154, i32 0, i32 4
  %156 = load ptr, ptr %155, align 8
  %157 = icmp ne ptr %156, null
  br i1 %157, label %158, label %164

158:                                              ; preds = %153
  %159 = load ptr, ptr %7, align 8
  %160 = load ptr, ptr %4, align 8
  %161 = getelementptr inbounds %struct.lexbor_avl_node, ptr %160, i32 0, i32 4
  %162 = load ptr, ptr %161, align 8
  %163 = getelementptr inbounds %struct.lexbor_avl_node, ptr %162, i32 0, i32 5
  store ptr %159, ptr %163, align 8
  br label %164

164:                                              ; preds = %158, %153
  br label %165

165:                                              ; preds = %164, %122
  br label %166

166:                                              ; preds = %169, %165
  %167 = load ptr, ptr %7, align 8
  %168 = icmp ne ptr %167, null
  br i1 %168, label %169, label %173

169:                                              ; preds = %166
  %170 = load ptr, ptr %7, align 8
  %171 = load ptr, ptr %6, align 8
  %172 = call ptr @lexbor_avl_node_balance(ptr noundef %170, ptr noundef %171)
  store ptr %172, ptr %7, align 8
  br label %166

173:                                              ; preds = %166
  ret void
}