; Function Attrs: nofree norecurse nosync nounwind memory(readwrite, inaccessiblemem: none) uwtable
define internal fastcc void @lexbor_avl_rotate_for_delete(ptr noundef readonly %0, ptr noundef %1, ptr nocapture noundef writeonly %2) unnamed_addr #5 {
  %.not = icmp eq ptr %1, null
  br i1 %.not, label %43, label %4

4:                                                ; preds = %3
  %5 = getelementptr inbounds i8, ptr %0, i64 24
  %6 = load ptr, ptr %5, align 8
  %7 = icmp eq ptr %6, %1
  %8 = getelementptr inbounds i8, ptr %0, i64 40
  br i1 %7, label %9, label %17

9:                                                ; preds = %4
  %10 = getelementptr inbounds i8, ptr %1, i64 24
  %11 = load ptr, ptr %10, align 8
  %.not66 = icmp eq ptr %11, null
  %. = select i1 %.not66, ptr %1, ptr %11
  %12 = load ptr, ptr %8, align 8
  %13 = getelementptr inbounds i8, ptr %1, i64 40
  store ptr %12, ptr %13, align 8
  %14 = getelementptr inbounds i8, ptr %0, i64 32
  %15 = load ptr, ptr %14, align 8
  %16 = getelementptr inbounds i8, ptr %1, i64 32
  store ptr %15, ptr %16, align 8
  %.not67 = icmp eq ptr %15, null
  br i1 %.not67, label %32, label %.sink.split

17:                                               ; preds = %4
  %18 = getelementptr inbounds i8, ptr %1, i64 40
  %19 = load ptr, ptr %18, align 8
  %20 = getelementptr inbounds i8, ptr %19, i64 32
  store ptr null, ptr %20, align 8
  %21 = load ptr, ptr %8, align 8
  store ptr %21, ptr %18, align 8
  %22 = getelementptr inbounds i8, ptr %0, i64 32
  %23 = load ptr, ptr %22, align 8
  %24 = getelementptr inbounds i8, ptr %1, i64 32
  store ptr %23, ptr %24, align 8
  %25 = load ptr, ptr %5, align 8
  %26 = getelementptr inbounds i8, ptr %1, i64 24
  store ptr %25, ptr %26, align 8
  %.not64 = icmp eq ptr %25, null
  br i1 %.not64, label %29, label %27

27:                                               ; preds = %17
  %28 = getelementptr inbounds i8, ptr %25, i64 40
  store ptr %1, ptr %28, align 8
  br label %29

29:                                               ; preds = %27, %17
  %30 = load ptr, ptr %22, align 8
  %.not65 = icmp eq ptr %30, null
  br i1 %.not65, label %32, label %.sink.split

.sink.split:                                      ; preds = %29, %9
  %.sink72 = phi ptr [ %15, %9 ], [ %30, %29 ]
  %.0.ph = phi ptr [ %., %9 ], [ %1, %29 ]
  %31 = getelementptr inbounds i8, ptr %.sink72, i64 40
  store ptr %1, ptr %31, align 8
  br label %32

32:                                               ; preds = %.sink.split, %29, %9
  %.0 = phi ptr [ %., %9 ], [ %1, %29 ], [ %.0.ph, %.sink.split ]
  %33 = getelementptr inbounds i8, ptr %0, i64 40
  %34 = load ptr, ptr %33, align 8
  %.not68 = icmp eq ptr %34, null
  br i1 %.not68, label %42, label %35

35:                                               ; preds = %32
  %36 = getelementptr inbounds i8, ptr %34, i64 24
  %37 = load ptr, ptr %36, align 8
  %38 = icmp eq ptr %37, %0
  br i1 %38, label %39, label %40

39:                                               ; preds = %35
  store ptr %1, ptr %36, align 8
  br label %62

40:                                               ; preds = %35
  %41 = getelementptr inbounds i8, ptr %34, i64 32
  store ptr %1, ptr %41, align 8
  br label %62

42:                                               ; preds = %32
  store ptr %1, ptr %2, align 8
  br label %62

43:                                               ; preds = %3
  %44 = getelementptr inbounds i8, ptr %0, i64 40
  %45 = load ptr, ptr %44, align 8
  %.not62 = icmp eq ptr %45, null
  br i1 %.not62, label %55, label %46

46:                                               ; preds = %43
  %47 = getelementptr inbounds i8, ptr %45, i64 24
  %48 = load ptr, ptr %47, align 8
  %49 = icmp eq ptr %48, %0
  %50 = getelementptr inbounds i8, ptr %0, i64 32
  %51 = load ptr, ptr %50, align 8
  br i1 %49, label %52, label %53

52:                                               ; preds = %46
  store ptr %51, ptr %47, align 8
  br label %58

53:                                               ; preds = %46
  %54 = getelementptr inbounds i8, ptr %45, i64 32
  store ptr %51, ptr %54, align 8
  br label %58

55:                                               ; preds = %43
  %56 = getelementptr inbounds i8, ptr %0, i64 32
  %57 = load ptr, ptr %56, align 8
  store ptr %57, ptr %2, align 8
  br label %58

58:                                               ; preds = %52, %53, %55
  %59 = phi ptr [ %51, %52 ], [ %51, %53 ], [ %57, %55 ]
  %.not63 = icmp eq ptr %59, null
  br i1 %.not63, label %62, label %60

60:                                               ; preds = %58
  %61 = getelementptr inbounds i8, ptr %59, i64 40
  store ptr %45, ptr %61, align 8
  br label %62

62:                                               ; preds = %58, %60, %42, %40, %39
  %.1 = phi ptr [ %.0, %39 ], [ %.0, %40 ], [ %.0, %42 ], [ %45, %60 ], [ %45, %58 ]
  %.not6970 = icmp eq ptr %.1, null
  br i1 %.not6970, label %._crit_edge, label %.lr.ph

.lr.ph:                                           ; preds = %62, %.lr.ph
  %.271 = phi ptr [ %63, %.lr.ph ], [ %.1, %62 ]
  %63 = tail call fastcc ptr @lexbor_avl_node_balance(ptr noundef nonnull %.271, ptr noundef %2)
  %.not69 = icmp eq ptr %63, null
  br i1 %.not69, label %._crit_edge, label %.lr.ph

._crit_edge:                                      ; preds = %.lr.ph, %62
  ret void
}